; Function Attrs: mustprogress nofree norecurse nosync nounwind willreturn memory(argmem: read) uwtable
define hidden noundef zeroext i1 @_ZN6google8protobuf8compiler6csharp19CompareFieldNumbersEPKNS0_15FieldDescriptorES5_(ptr nocapture noundef readonly %d1, ptr nocapture noundef readonly %d2) #3 {
entry:
  %number_.i = getelementptr inbounds i8, ptr %d1, i64 4
  %0 = load i32, ptr %number_.i, align 4
  %number_.i1 = getelementptr inbounds i8, ptr %d2, i64 4
  %1 = load i32, ptr %number_.i1, align 4
  %cmp = icmp slt i32 %0, %1
  ret i1 %cmp
}